target datalayout = "e-m:e-p270:32:32-p271:32:32-p272:64:64-i64:64-i128:128-f80:128-n8:16:32:64-S128"
target triple = "x86_64-pc-linux-gnu"

%struct.code = type { i8, i8, i16 }
%struct.z_stream_s = type { ptr, i32, i64, ptr, i32, i64, ptr, ptr, ptr, ptr, ptr, i32, i64, i64 }
%struct.inflate_state = type { i32, i32, i32, i32, i32, i32, i64, i64, ptr, i32, i32, i32, i32, ptr, i64, i32, i32, i32, i32, ptr, ptr, i32, i32, i32, i32, i32, i32, ptr, [320 x i16], [288 x i16], [1444 x %struct.code], i32, i32, i32 }

; Function Attrs: nounwind uwtable
define i64 @inflateMark(ptr noundef %0) #0 {
  %2 = alloca i64, align 8
  %3 = alloca ptr, align 8
  %4 = alloca ptr, align 8
  %5 = alloca i32, align 4
  store ptr %0, ptr %3, align 8, !tbaa !3
  call void @llvm.lifetime.start.p0(i64 8, ptr %4) #4
  %6 = load ptr, ptr %3, align 8, !tbaa !3
  %7 = icmp eq ptr %6, null
  br i1 %7, label %13, label %8

8:                                                ; preds = %1
  %9 = load ptr, ptr %3, align 8, !tbaa !3
  %10 = getelementptr inbounds nuw %struct.z_stream_s, ptr %9, i32 0, i32 7
  %11 = load ptr, ptr %10, align 8, !tbaa !8
  %12 = icmp eq ptr %11, null
  br i1 %12, label %13, label %14

13:                                               ; preds = %8, %1
  store i64 -65536, ptr %2, align 8
  store i32 1, ptr %5, align 4
  br label %51

14:                                               ; preds = %8
  %15 = load ptr, ptr %3, align 8, !tbaa !3
  %16 = getelementptr inbounds nuw %struct.z_stream_s, ptr %15, i32 0, i32 7
  %17 = load ptr, ptr %16, align 8, !tbaa !8
  store ptr %17, ptr %4, align 8, !tbaa !14
  %18 = load ptr, ptr %4, align 8, !tbaa !14
  %19 = getelementptr inbounds nuw %struct.inflate_state, ptr %18, i32 0, i32 32
  %20 = load i32, ptr %19, align 4, !tbaa !35
  %21 = sext i32 %20 to i64
  %22 = shl i64 %21, 16
  %23 = load ptr, ptr %4, align 8, !tbaa !14
  %24 = getelementptr inbounds nuw %struct.inflate_state, ptr %23, i32 0, i32 0
  %25 = load i32, ptr %24, align 8, !tbaa !24
  %26 = icmp eq i32 %25, 15
  br i1 %26, label %27, label %31

27:                                               ; preds = %14
  %28 = load ptr, ptr %4, align 8, !tbaa !14
  %29 = getelementptr inbounds nuw %struct.inflate_state, ptr %28, i32 0, i32 16
  %30 = load i32, ptr %29, align 4, !tbaa !66
  br label %47

31:                                               ; preds = %14
  %32 = load ptr, ptr %4, align 8, !tbaa !14
  %33 = getelementptr inbounds nuw %struct.inflate_state, ptr %32, i32 0, i32 0
  %34 = load i32, ptr %33, align 8, !tbaa !24
  %35 = icmp eq i32 %34, 24
  br i1 %35, label %36, label %44

36:                                               ; preds = %31
  %37 = load ptr, ptr %4, align 8, !tbaa !14
  %38 = getelementptr inbounds nuw %struct.inflate_state, ptr %37, i32 0, i32 33
  %39 = load i32, ptr %38, align 8, !tbaa !105
  %40 = load ptr, ptr %4, align 8, !tbaa !14
  %41 = getelementptr inbounds nuw %struct.inflate_state, ptr %40, i32 0, i32 16
  %42 = load i32, ptr %41, align 4, !tbaa !66
  %43 = sub i32 %39, %42
  br label %45

44:                                               ; preds = %31
  br label %45

45:                                               ; preds = %44, %36
  %46 = phi i32 [ %43, %36 ], [ 0, %44 ]
  br label %47

47:                                               ; preds = %45, %27
  %48 = phi i32 [ %30, %27 ], [ %46, %45 ]
  %49 = zext i32 %48 to i64
  %50 = add nsw i64 %22, %49
  store i64 %50, ptr %2, align 8
  store i32 1, ptr %5, align 4
  br label %51

51:                                               ; preds = %47, %13
  call void @llvm.lifetime.end.p0(i64 8, ptr %4) #4
  %52 = load i64, ptr %2, align 8
  ret i64 %52
}