; Function Attrs: mustprogress nofree norecurse nosync nounwind willreturn memory(read, inaccessiblemem: none) uwtable
define range(i64 -140737488355328, 140741783257088) i64 @inflateMark(ptr noundef readonly %0) local_unnamed_addr #6 {
  %2 = icmp eq ptr %0, null
  br i1 %2, label %26, label %3

3:                                                ; preds = %1
  %4 = getelementptr inbounds nuw i8, ptr %0, i64 56
  %5 = load ptr, ptr %4, align 8, !tbaa !3
  %6 = icmp eq ptr %5, null
  br i1 %6, label %26, label %7

7:                                                ; preds = %3
  %8 = getelementptr inbounds nuw i8, ptr %5, i64 7140
  %9 = load i32, ptr %8, align 4, !tbaa !29
  %10 = sext i32 %9 to i64
  %11 = shl nsw i64 %10, 16
  %12 = load i32, ptr %5, align 8, !tbaa !18
  switch i32 %12, label %22 [
    i32 15, label %13
    i32 24, label %16
  ]

13:                                               ; preds = %7
  %14 = getelementptr inbounds nuw i8, ptr %5, i64 84
  %15 = load i32, ptr %14, align 4, !tbaa !60
  br label %22

16:                                               ; preds = %7
  %17 = getelementptr inbounds nuw i8, ptr %5, i64 7144
  %18 = load i32, ptr %17, align 8, !tbaa !90
  %19 = getelementptr inbounds nuw i8, ptr %5, i64 84
  %20 = load i32, ptr %19, align 4, !tbaa !60
  %21 = sub i32 %18, %20
  br label %22

22:                                               ; preds = %7, %16, %13
  %23 = phi i32 [ %15, %13 ], [ %21, %16 ], [ 0, %7 ]
  %24 = zext i32 %23 to i64
  %25 = add nsw i64 %11, %24
  br label %26

26:                                               ; preds = %1, %3, %22
  %.0 = phi i64 [ %25, %22 ], [ -65536, %3 ], [ -65536, %1 ]
  ret i64 %.0
}